target datalayout = "e-m:e-p270:32:32-p271:32:32-p272:64:64-i64:64-i128:128-f80:128-n8:16:32:64-S128"
target triple = "x86_64-pc-linux-gnu"

%struct.sockaddr = type { i16, [14 x i8] }
%struct.in_addr = type { i32 }
%struct.in6_addr = type { %union.anon }
%union.anon = type { [4 x i32] }
%struct.sockaddr_in6 = type { i16, i16, i32, %struct.in6_addr, i32 }
%struct.sockaddr_in = type { i16, i16, %struct.in_addr, [8 x i8] }

; Function Attrs: nounwind uwtable
define i32 @evutil_sockaddr_cmp(ptr noundef %0, ptr noundef %1, i32 noundef %2) #0 {
  %4 = alloca i32, align 4
  %5 = alloca ptr, align 8
  %6 = alloca ptr, align 8
  %7 = alloca i32, align 4
  %8 = alloca i32, align 4
  %9 = alloca i32, align 4
  %10 = alloca ptr, align 8
  %11 = alloca ptr, align 8
  %12 = alloca ptr, align 8
  %13 = alloca ptr, align 8
  store ptr %0, ptr %5, align 8
  store ptr %1, ptr %6, align 8
  store i32 %2, ptr %7, align 4
  call void @llvm.lifetime.start.p0(i64 4, ptr %8) #11
  %14 = load ptr, ptr %5, align 8
  %15 = getelementptr inbounds nuw %struct.sockaddr, ptr %14, i32 0, i32 0
  %16 = load i16, ptr %15, align 2
  %17 = zext i16 %16 to i32
  %18 = load ptr, ptr %6, align 8
  %19 = getelementptr inbounds nuw %struct.sockaddr, ptr %18, i32 0, i32 0
  %20 = load i16, ptr %19, align 2
  %21 = zext i16 %20 to i32
  %22 = sub nsw i32 %17, %21
  store i32 %22, ptr %8, align 4
  %23 = icmp ne i32 0, %22
  br i1 %23, label %24, label %26

24:                                               ; preds = %3
  %25 = load i32, ptr %8, align 4
  store i32 %25, ptr %4, align 4
  store i32 1, ptr %9, align 4
  br label %115

26:                                               ; preds = %3
  %27 = load ptr, ptr %5, align 8
  %28 = getelementptr inbounds nuw %struct.sockaddr, ptr %27, i32 0, i32 0
  %29 = load i16, ptr %28, align 2
  %30 = zext i16 %29 to i32
  %31 = icmp eq i32 %30, 2
  br i1 %31, label %32, label %74

32:                                               ; preds = %26
  call void @llvm.lifetime.start.p0(i64 8, ptr %10) #11
  call void @llvm.lifetime.start.p0(i64 8, ptr %11) #11
  %33 = load ptr, ptr %5, align 8
  store ptr %33, ptr %10, align 8
  %34 = load ptr, ptr %6, align 8
  store ptr %34, ptr %11, align 8
  %35 = load ptr, ptr %10, align 8
  %36 = getelementptr inbounds nuw %struct.sockaddr_in, ptr %35, i32 0, i32 2
  %37 = getelementptr inbounds nuw %struct.in_addr, ptr %36, i32 0, i32 0
  %38 = load i32, ptr %37, align 4
  %39 = load ptr, ptr %11, align 8
  %40 = getelementptr inbounds nuw %struct.sockaddr_in, ptr %39, i32 0, i32 2
  %41 = getelementptr inbounds nuw %struct.in_addr, ptr %40, i32 0, i32 0
  %42 = load i32, ptr %41, align 4
  %43 = icmp ult i32 %38, %42
  br i1 %43, label %44, label %45

44:                                               ; preds = %32
  store i32 -1, ptr %4, align 4
  store i32 1, ptr %9, align 4
  br label %73

45:                                               ; preds = %32
  %46 = load ptr, ptr %10, align 8
  %47 = getelementptr inbounds nuw %struct.sockaddr_in, ptr %46, i32 0, i32 2
  %48 = getelementptr inbounds nuw %struct.in_addr, ptr %47, i32 0, i32 0
  %49 = load i32, ptr %48, align 4
  %50 = load ptr, ptr %11, align 8
  %51 = getelementptr inbounds nuw %struct.sockaddr_in, ptr %50, i32 0, i32 2
  %52 = getelementptr inbounds nuw %struct.in_addr, ptr %51, i32 0, i32 0
  %53 = load i32, ptr %52, align 4
  %54 = icmp ugt i32 %49, %53
  br i1 %54, label %55, label %56

55:                                               ; preds = %45
  store i32 1, ptr %4, align 4
  store i32 1, ptr %9, align 4
  br label %73

56:                                               ; preds = %45
  %57 = load i32, ptr %7, align 4
  %58 = icmp ne i32 %57, 0
  br i1 %58, label %59, label %72

59:                                               ; preds = %56
  %60 = load ptr, ptr %10, align 8
  %61 = getelementptr inbounds nuw %struct.sockaddr_in, ptr %60, i32 0, i32 1
  %62 = load i16, ptr %61, align 2
  %63 = zext i16 %62 to i32
  %64 = load ptr, ptr %11, align 8
  %65 = getelementptr inbounds nuw %struct.sockaddr_in, ptr %64, i32 0, i32 1
  %66 = load i16, ptr %65, align 2
  %67 = zext i16 %66 to i32
  %68 = sub nsw i32 %63, %67
  store i32 %68, ptr %8, align 4
  %69 = icmp ne i32 %68, 0
  br i1 %69, label %70, label %72

70:                                               ; preds = %59
  %71 = load i32, ptr %8, align 4
  store i32 %71, ptr %4, align 4
  store i32 1, ptr %9, align 4
  br label %73

72:                                               ; preds = %59, %56
  store i32 0, ptr %4, align 4
  store i32 1, ptr %9, align 4
  br label %73

73:                                               ; preds = %72, %70, %55, %44
  call void @llvm.lifetime.end.p0(i64 8, ptr %11) #11
  call void @llvm.lifetime.end.p0(i64 8, ptr %10) #11
  br label %115

74:                                               ; preds = %26
  %75 = load ptr, ptr %5, align 8
  %76 = getelementptr inbounds nuw %struct.sockaddr, ptr %75, i32 0, i32 0
  %77 = load i16, ptr %76, align 2
  %78 = zext i16 %77 to i32
  %79 = icmp eq i32 %78, 10
  br i1 %79, label %80, label %113

80:                                               ; preds = %74
  call void @llvm.lifetime.start.p0(i64 8, ptr %12) #11
  call void @llvm.lifetime.start.p0(i64 8, ptr %13) #11
  %81 = load ptr, ptr %5, align 8
  store ptr %81, ptr %12, align 8
  %82 = load ptr, ptr %6, align 8
  store ptr %82, ptr %13, align 8
  %83 = load ptr, ptr %12, align 8
  %84 = getelementptr inbounds nuw %struct.sockaddr_in6, ptr %83, i32 0, i32 3
  %85 = getelementptr inbounds nuw %struct.in6_addr, ptr %84, i32 0, i32 0
  %86 = getelementptr inbounds [16 x i8], ptr %85, i64 0, i64 0
  %87 = load ptr, ptr %13, align 8
  %88 = getelementptr inbounds nuw %struct.sockaddr_in6, ptr %87, i32 0, i32 3
  %89 = getelementptr inbounds nuw %struct.in6_addr, ptr %88, i32 0, i32 0
  %90 = getelementptr inbounds [16 x i8], ptr %89, i64 0, i64 0
  %91 = call i32 @memcmp(ptr noundef %86, ptr noundef %90, i64 noundef 16) #13
  store i32 %91, ptr %8, align 4
  %92 = icmp ne i32 %91, 0
  br i1 %92, label %93, label %95

93:                                               ; preds = %80
  %94 = load i32, ptr %8, align 4
  store i32 %94, ptr %4, align 4
  store i32 1, ptr %9, align 4
  br label %112

95:                                               ; preds = %80
  %96 = load i32, ptr %7, align 4
  %97 = icmp ne i32 %96, 0
  br i1 %97, label %98, label %111

98:                                               ; preds = %95
  %99 = load ptr, ptr %12, align 8
  %100 = getelementptr inbounds nuw %struct.sockaddr_in6, ptr %99, i32 0, i32 1
  %101 = load i16, ptr %100, align 2
  %102 = zext i16 %101 to i32
  %103 = load ptr, ptr %13, align 8
  %104 = getelementptr inbounds nuw %struct.sockaddr_in6, ptr %103, i32 0, i32 1
  %105 = load i16, ptr %104, align 2
  %106 = zext i16 %105 to i32
  %107 = sub nsw i32 %102, %106
  store i32 %107, ptr %8, align 4
  %108 = icmp ne i32 %107, 0
  br i1 %108, label %109, label %111

109:                                              ; preds = %98
  %110 = load i32, ptr %8, align 4
  store i32 %110, ptr %4, align 4
  store i32 1, ptr %9, align 4
  br label %112

111:                                              ; preds = %98, %95
  store i32 0, ptr %4, align 4
  store i32 1, ptr %9, align 4
  br label %112

112:                                              ; preds = %111, %109, %93
  call void @llvm.lifetime.end.p0(i64 8, ptr %13) #11
  call void @llvm.lifetime.end.p0(i64 8, ptr %12) #11
  br label %115

113:                                              ; preds = %74
  br label %114

114:                                              ; preds = %113
  store i32 1, ptr %4, align 4
  store i32 1, ptr %9, align 4
  br label %115

115:                                              ; preds = %114, %112, %73, %24
  call void @llvm.lifetime.end.p0(i64 4, ptr %8) #11
  %116 = load i32, ptr %4, align 4
  ret i32 %116
}