; Function Attrs: mustprogress nofree nounwind willreturn memory(argmem: read) uwtable
define i32 @evutil_sockaddr_cmp(ptr noundef readonly captures(none) %0, ptr noundef readonly captures(none) %1, i32 noundef %2) local_unnamed_addr #11 {
  %4 = load i16, ptr %0, align 2
  %5 = zext i16 %4 to i32
  %6 = load i16, ptr %1, align 2
  %7 = zext i16 %6 to i32
  %8 = sub nsw i32 %5, %7
  %.not = icmp eq i32 %8, 0
  br i1 %.not, label %9, label %42

9:                                                ; preds = %3
  switch i16 %4, label %42 [
    i16 2, label %10
    i16 10, label %28
  ]

10:                                               ; preds = %9
  %11 = getelementptr inbounds nuw i8, ptr %0, i64 4
  %12 = load i32, ptr %11, align 4
  %13 = getelementptr inbounds nuw i8, ptr %1, i64 4
  %14 = load i32, ptr %13, align 4
  %15 = icmp ult i32 %12, %14
  br i1 %15, label %42, label %16

16:                                               ; preds = %10
  %17 = icmp ugt i32 %12, %14
  br i1 %17, label %42, label %18

18:                                               ; preds = %16
  %.not34 = icmp eq i32 %2, 0
  br i1 %.not34, label %27, label %19

19:                                               ; preds = %18
  %20 = getelementptr inbounds nuw i8, ptr %0, i64 2
  %21 = load i16, ptr %20, align 2
  %22 = zext i16 %21 to i32
  %23 = getelementptr inbounds nuw i8, ptr %1, i64 2
  %24 = load i16, ptr %23, align 2
  %25 = zext i16 %24 to i32
  %26 = sub nsw i32 %22, %25
  %.not35 = icmp eq i32 %26, 0
  br i1 %.not35, label %27, label %42

27:                                               ; preds = %19, %18
  br label %42

28:                                               ; preds = %9
  %29 = getelementptr inbounds nuw i8, ptr %0, i64 8
  %30 = getelementptr inbounds nuw i8, ptr %1, i64 8
  %31 = tail call i32 @memcmp(ptr noundef nonnull dereferenceable(16) %29, ptr noundef nonnull dereferenceable(16) %30, i64 noundef 16) #32
  %.not31 = icmp eq i32 %31, 0
  br i1 %.not31, label %32, label %42

32:                                               ; preds = %28
  %.not32 = icmp eq i32 %2, 0
  br i1 %.not32, label %41, label %33

33:                                               ; preds = %32
  %34 = getelementptr inbounds nuw i8, ptr %0, i64 2
  %35 = load i16, ptr %34, align 2
  %36 = zext i16 %35 to i32
  %37 = getelementptr inbounds nuw i8, ptr %1, i64 2
  %38 = load i16, ptr %37, align 2
  %39 = zext i16 %38 to i32
  %40 = sub nsw i32 %36, %39
  %.not33 = icmp eq i32 %40, 0
  br i1 %.not33, label %41, label %42

41:                                               ; preds = %33, %32
  br label %42

42:                                               ; preds = %9, %41, %28, %33, %27, %10, %16, %19, %3
  %.0 = phi i32 [ %8, %3 ], [ 0, %27 ], [ -1, %10 ], [ 1, %16 ], [ %26, %19 ], [ 0, %41 ], [ %31, %28 ], [ %40, %33 ], [ 1, %9 ]
  ret i32 %.0
}